; Function Attrs: mustprogress nounwind uwtable
define dso_local void @_ZN5clang28MultiplexASTMutationListener27CompletedImplicitDefinitionEPKNS_12FunctionDeclE(ptr noundef nonnull readonly align 8 captures(none) dereferenceable(32) %0, ptr noundef %1) unnamed_addr #0 align 2 {
  %3 = getelementptr inbounds nuw i8, ptr %0, i64 8
  %4 = getelementptr inbounds nuw i8, ptr %0, i64 16
  %5 = load ptr, ptr %4, align 8
  %6 = load ptr, ptr %3, align 8
  %7 = ptrtoint ptr %5 to i64
  %8 = ptrtoint ptr %6 to i64
  %9 = sub i64 %7, %8
  %10 = ashr exact i64 %9, 3
  %.not5 = icmp eq ptr %5, %6
  br i1 %.not5, label %._crit_edge, label %.lr.ph

.lr.ph:                                           ; preds = %2, %.lr.ph
  %.06 = phi i64 [ %17, %.lr.ph ], [ 0, %2 ]
  %11 = load ptr, ptr %3, align 8
  %12 = getelementptr inbounds ptr, ptr %11, i64 %.06
  %13 = load ptr, ptr %12, align 8
  %14 = load ptr, ptr %13, align 8
  %15 = getelementptr inbounds nuw i8, ptr %14, i64 88
  %16 = load ptr, ptr %15, align 8
  tail call void %16(ptr noundef nonnull align 8 dereferenceable(8) %13, ptr noundef %1) #14
  %17 = add i64 %.06, 1
  %.not = icmp eq i64 %17, %10
  br i1 %.not, label %._crit_edge, label %.lr.ph, !llvm.loop !19

._crit_edge:                                      ; preds = %.lr.ph, %2
  ret void
}